; Function Attrs: nounwind uwtable
define ptr @l_Lean_PersistentHashMap_insert___at___private_Lean_Meta_FunInfo_0__Lean_Meta_checkFunInfoCache___spec__4(ptr noundef %0, ptr noundef %1, ptr noundef %2) local_unnamed_addr #1 {
  %4 = getelementptr inbounds nuw i8, ptr %1, i64 8
  %5 = getelementptr inbounds nuw i8, ptr %1, i64 24
  %6 = load i64, ptr %5, align 8, !tbaa !12
  %7 = load ptr, ptr %4, align 8, !tbaa !9
  %8 = ptrtoint ptr %7 to i64
  %9 = and i64 %8, 1
  %.not = icmp eq i64 %9, 0
  br i1 %.not, label %10, label %lean_inc.exit40

10:                                               ; preds = %3
  %.val.i = load i32, ptr %7, align 4, !tbaa !4
  %11 = icmp sgt i32 %.val.i, 0
  br i1 %11, label %12, label %14, !prof !11

12:                                               ; preds = %10
  %13 = add nuw i32 %.val.i, 1
  store i32 %13, ptr %7, align 4, !tbaa !4
  br label %lean_inc.exit40

14:                                               ; preds = %10
  %.not.i45 = icmp eq i32 %.val.i, 0
  br i1 %.not.i45, label %lean_inc.exit40, label %15

15:                                               ; preds = %14
  tail call void @lean_inc_ref_cold(ptr noundef nonnull %7) #5
  br label %lean_inc.exit40

lean_inc.exit40:                                  ; preds = %15, %14, %12, %3
  %16 = getelementptr inbounds nuw i8, ptr %1, i64 16
  %17 = load ptr, ptr %16, align 8, !tbaa !9
  %18 = ptrtoint ptr %17 to i64
  %19 = and i64 %18, 1
  %.not55 = icmp eq i64 %19, 0
  br i1 %.not55, label %20, label %lean_inc.exit39

20:                                               ; preds = %lean_inc.exit40
  %.val.i46 = load i32, ptr %17, align 4, !tbaa !4
  %21 = icmp sgt i32 %.val.i46, 0
  br i1 %21, label %22, label %24, !prof !11

22:                                               ; preds = %20
  %23 = add nuw i32 %.val.i46, 1
  store i32 %23, ptr %17, align 4, !tbaa !4
  br label %lean_inc.exit39

24:                                               ; preds = %20
  %.not.i47 = icmp eq i32 %.val.i46, 0
  br i1 %.not.i47, label %lean_inc.exit39, label %25

25:                                               ; preds = %24
  tail call void @lean_inc_ref_cold(ptr noundef nonnull %17) #5
  br label %lean_inc.exit39

lean_inc.exit39:                                  ; preds = %25, %24, %22, %lean_inc.exit40
  %26 = tail call i64 @l_Lean_Expr_hash(ptr noundef %7) #5
  br i1 %.not, label %27, label %lean_dec.exit38

27:                                               ; preds = %lean_inc.exit39
  %28 = load i32, ptr %7, align 4, !tbaa !4
  %29 = icmp sgt i32 %28, 1
  br i1 %29, label %30, label %32, !prof !11

30:                                               ; preds = %27
  %31 = add nsw i32 %28, -1
  store i32 %31, ptr %7, align 4, !tbaa !4
  br label %lean_dec.exit38

32:                                               ; preds = %27
  %.not.i = icmp eq i32 %28, 0
  br i1 %.not.i, label %lean_dec.exit38, label %33

33:                                               ; preds = %32
  tail call void @lean_dec_ref_cold(ptr noundef nonnull %7) #5
  br label %lean_dec.exit38

lean_dec.exit38:                                  ; preds = %33, %32, %30, %lean_inc.exit39
  br i1 %.not55, label %37, label %34

34:                                               ; preds = %lean_dec.exit38
  %35 = lshr i64 %18, 1
  %36 = trunc i64 %35 to i32
  br label %lean_obj_tag.exit

37:                                               ; preds = %lean_dec.exit38
  %38 = getelementptr i8, ptr %17, i64 4
  %.val.i50 = load i32, ptr %38, align 4
  %39 = lshr i32 %.val.i50, 24
  br label %lean_obj_tag.exit

lean_obj_tag.exit:                                ; preds = %34, %37
  %.0.i = phi i32 [ %36, %34 ], [ %39, %37 ]
  %40 = icmp eq i32 %.0.i, 0
  br i1 %40, label %70, label %41

41:                                               ; preds = %lean_obj_tag.exit
  %42 = getelementptr inbounds nuw i8, ptr %17, i64 8
  %43 = load ptr, ptr %42, align 8, !tbaa !9
  %44 = ptrtoint ptr %43 to i64
  %45 = and i64 %44, 1
  %.not56 = icmp eq i64 %45, 0
  br i1 %.not56, label %46, label %lean_inc.exit

46:                                               ; preds = %41
  %.val.i51 = load i32, ptr %43, align 4, !tbaa !4
  %47 = icmp sgt i32 %.val.i51, 0
  br i1 %47, label %48, label %50, !prof !11

48:                                               ; preds = %46
  %49 = add nuw i32 %.val.i51, 1
  store i32 %49, ptr %43, align 4, !tbaa !4
  br label %lean_inc.exit

50:                                               ; preds = %46
  %.not.i52 = icmp eq i32 %.val.i51, 0
  br i1 %.not.i52, label %lean_inc.exit, label %51

51:                                               ; preds = %50
  tail call void @lean_inc_ref_cold(ptr noundef nonnull %43) #5
  br label %lean_inc.exit

lean_inc.exit:                                    ; preds = %51, %50, %48, %41
  br i1 %.not55, label %52, label %lean_dec.exit37

52:                                               ; preds = %lean_inc.exit
  %53 = load i32, ptr %17, align 4, !tbaa !4
  %54 = icmp sgt i32 %53, 1
  br i1 %54, label %55, label %57, !prof !11

55:                                               ; preds = %52
  %56 = add nsw i32 %53, -1
  store i32 %56, ptr %17, align 4, !tbaa !4
  br label %lean_dec.exit37

57:                                               ; preds = %52
  %.not.i41 = icmp eq i32 %53, 0
  br i1 %.not.i41, label %lean_dec.exit37, label %58

58:                                               ; preds = %57
  tail call void @lean_dec_ref_cold(ptr noundef nonnull %17) #5
  br label %lean_dec.exit37

lean_dec.exit37:                                  ; preds = %58, %57, %55, %lean_inc.exit
  br i1 %.not56, label %60, label %lean_uint64_of_nat.exit.thread

lean_uint64_of_nat.exit.thread:                   ; preds = %lean_dec.exit37
  %59 = lshr i64 %44, 1
  br label %lean_dec.exit

60:                                               ; preds = %lean_dec.exit37
  %61 = tail call i64 @lean_uint64_of_big_nat(ptr noundef %43) #5
  %62 = load i32, ptr %43, align 4, !tbaa !4
  %63 = icmp sgt i32 %62, 1
  br i1 %63, label %64, label %66, !prof !11

64:                                               ; preds = %60
  %65 = add nsw i32 %62, -1
  store i32 %65, ptr %43, align 4, !tbaa !4
  br label %lean_dec.exit

66:                                               ; preds = %60
  %.not.i43 = icmp eq i32 %62, 0
  br i1 %.not.i43, label %lean_dec.exit, label %67

67:                                               ; preds = %66
  tail call void @lean_dec_ref_cold(ptr noundef nonnull %43) #5
  br label %lean_dec.exit

lean_dec.exit:                                    ; preds = %67, %66, %64, %lean_uint64_of_nat.exit.thread
  %68 = phi i64 [ %59, %lean_uint64_of_nat.exit.thread ], [ %61, %64 ], [ %61, %66 ], [ %61, %67 ]
  %69 = tail call i64 @lean_uint64_mix_hash(i64 noundef %68, i64 noundef 13) #5
  br label %70

70:                                               ; preds = %lean_obj_tag.exit, %lean_dec.exit
  %.sink = phi i64 [ %69, %lean_dec.exit ], [ 11, %lean_obj_tag.exit ]
  %71 = tail call i64 @lean_uint64_mix_hash(i64 noundef %26, i64 noundef %.sink) #5
  %72 = tail call i64 @lean_uint64_mix_hash(i64 noundef %6, i64 noundef %71) #5
  %73 = tail call ptr @l_Lean_PersistentHashMap_insertAux___at___private_Lean_Meta_FunInfo_0__Lean_Meta_checkFunInfoCache___spec__5(ptr noundef %0, i64 noundef %72, i64 noundef 1, ptr noundef nonnull %1, ptr noundef %2)
  ret ptr %73
}